; Function Attrs: mustprogress nofree nounwind willreturn memory(read) uwtable
define dso_local noundef zeroext i1 @_ZNK4llvm11Instruction16mayWriteToMemoryEv(ptr noundef nonnull align 8 dereferenceable(72) %0) local_unnamed_addr #8 align 2 {
  %2 = load i8, ptr %0, align 8
  switch i8 %2, label %12 [
    i8 64, label %3
    i8 62, label %3
    i8 89, label %3
    i8 65, label %3
    i8 66, label %3
    i8 81, label %3
    i8 38, label %3
    i8 85, label %4
    i8 34, label %4
    i8 40, label %4
    i8 61, label %7
  ]

3:                                                ; preds = %1, %1, %1, %1, %1, %1, %1
  br label %12

4:                                                ; preds = %1, %1, %1
  %5 = tail call noundef zeroext i1 @_ZNK4llvm8CallBase15onlyReadsMemoryEv(ptr noundef nonnull align 8 dereferenceable(88) %0) #21
  %6 = xor i1 %5, true
  br label %12

7:                                                ; preds = %1
  %8 = getelementptr inbounds nuw i8, ptr %0, i64 2
  %9 = load i16, ptr %8, align 2
  %10 = and i16 %9, 769
  %11 = icmp ne i16 %10, 0
  br label %12

12:                                               ; preds = %1, %7, %4, %3
  %.0 = phi i1 [ %11, %7 ], [ %6, %4 ], [ true, %3 ], [ false, %1 ]
  ret i1 %.0
}